target datalayout = "e-m:e-p270:32:32-p271:32:32-p272:64:64-i64:64-i128:128-f80:128-n8:16:32:64-S128"
target triple = "x86_64-pc-linux-gnu"

%struct.dt_pthread_mutex_t = type { %union.pthread_mutex_t }
%union.pthread_mutex_t = type { %struct.__pthread_mutex_s }
%struct.__pthread_mutex_s = type { i32, i32, i32, i32, i32, i16, i16, %struct.__pthread_internal_list }
%struct.__pthread_internal_list = type { ptr, ptr }
%struct.dt_action_t = type { i32, ptr, ptr, ptr, ptr, ptr }
%struct.dt_control_t = type { i32, ptr, %struct.dt_action_t, %struct.dt_action_t, %struct.dt_action_t, %struct.dt_action_t, %struct.dt_action_t, %struct.dt_action_t, %struct.dt_action_t, %struct.dt_action_t, %struct.dt_action_t, %struct.dt_action_t, %struct.dt_action_t, ptr, ptr, ptr, i32, ptr, i32, i32, ptr, ptr, [256 x i8], i32, double, i32, i32, i64, i32, i32, i32, double, double, i32, i32, i32, i32, i32, i32, [8 x [1000 x i8]], i32, i32, %struct.dt_pthread_mutex_t, i32, i32, [2 x [300 x i8]], i32, i32, %struct.dt_pthread_mutex_t, %struct.dt_pthread_mutex_t, %struct.dt_pthread_mutex_t, double, i32, i32, i32, %struct.dt_pthread_mutex_t, %struct.dt_pthread_mutex_t, %union.pthread_cond_t, i32, ptr, i64, i64, ptr, [5 x ptr], [5 x i64], %struct.dt_pthread_mutex_t, [3 x ptr], [3 x i8], [3 x i64], %struct.anon.0, %struct.anon.2 }
%union.pthread_cond_t = type { %struct.__pthread_cond_s }
%struct.__pthread_cond_s = type { %union.__atomic_wide_counter, %union.__atomic_wide_counter, [2 x i32], [2 x i32], i32, i32, [2 x i32] }
%union.__atomic_wide_counter = type { i64 }
%struct.anon.0 = type { ptr, i64, i64, double, %struct.dt_pthread_mutex_t, %struct.anon.1 }
%struct.anon.1 = type { ptr, ptr, ptr, ptr, ptr, ptr }
%struct.anon.2 = type { %struct.anon.3 }
%struct.anon.3 = type { ptr, ptr }

; Function Attrs: inlinehint nounwind uwtable
define internal i32 @dt_pthread_mutex_destroy(ptr noundef %0) #4 {
  %2 = alloca ptr, align 8
  %3 = alloca i32, align 4
  store ptr %0, ptr %2, align 8, !tbaa !118
  call void @llvm.lifetime.start.p0(i64 4, ptr %3) #10
  %4 = load ptr, ptr %2, align 8, !tbaa !118
  %5 = getelementptr inbounds nuw %struct.dt_pthread_mutex_t, ptr %4, i32 0, i32 0
  %6 = call i32 @pthread_mutex_destroy(ptr noundef %5) #10
  store i32 %6, ptr %3, align 4, !tbaa !10
  %7 = load i32, ptr %3, align 4, !tbaa !10
  call void @llvm.lifetime.end.p0(i64 4, ptr %3) #10
  ret i32 %7
}

; Function Attrs: nounwind uwtable
define void @dt_control_cleanup(ptr noundef %0) #0 {
  %2 = alloca ptr, align 8
  store ptr %0, ptr %2, align 8, !tbaa !73
  %3 = load ptr, ptr %2, align 8, !tbaa !73
  %4 = icmp ne ptr %3, null
  br i1 %4, label %6, label %5

5:                                                ; preds = %1
  br label %53

6:                                                ; preds = %1
  %7 = load ptr, ptr %2, align 8, !tbaa !73
  call void @dt_control_jobs_cleanup(ptr noundef %7)
  %8 = load ptr, ptr %2, align 8, !tbaa !73
  %9 = getelementptr inbounds nuw %struct.dt_control_t, ptr %8, i32 0, i32 55
  %10 = call i32 @dt_pthread_mutex_destroy(ptr noundef %9)
  %11 = load ptr, ptr %2, align 8, !tbaa !73
  %12 = getelementptr inbounds nuw %struct.dt_control_t, ptr %11, i32 0, i32 56
  %13 = call i32 @dt_pthread_mutex_destroy(ptr noundef %12)
  %14 = load ptr, ptr %2, align 8, !tbaa !73
  %15 = getelementptr inbounds nuw %struct.dt_control_t, ptr %14, i32 0, i32 42
  %16 = call i32 @dt_pthread_mutex_destroy(ptr noundef %15)
  %17 = load ptr, ptr %2, align 8, !tbaa !73
  %18 = getelementptr inbounds nuw %struct.dt_control_t, ptr %17, i32 0, i32 48
  %19 = call i32 @dt_pthread_mutex_destroy(ptr noundef %18)
  %20 = load ptr, ptr %2, align 8, !tbaa !73
  %21 = getelementptr inbounds nuw %struct.dt_control_t, ptr %20, i32 0, i32 65
  %22 = call i32 @dt_pthread_mutex_destroy(ptr noundef %21)
  %23 = load ptr, ptr %2, align 8, !tbaa !73
  %24 = getelementptr inbounds nuw %struct.dt_control_t, ptr %23, i32 0, i32 69
  %25 = getelementptr inbounds nuw %struct.anon.0, ptr %24, i32 0, i32 4
  %26 = call i32 @dt_pthread_mutex_destroy(ptr noundef %25)
  %27 = load ptr, ptr %2, align 8, !tbaa !73
  %28 = getelementptr inbounds nuw %struct.dt_control_t, ptr %27, i32 0, i32 14
  %29 = load ptr, ptr %28, align 8, !tbaa !95
  %30 = icmp ne ptr %29, null
  br i1 %30, label %31, label %35

31:                                               ; preds = %6
  %32 = load ptr, ptr %2, align 8, !tbaa !73
  %33 = getelementptr inbounds nuw %struct.dt_control_t, ptr %32, i32 0, i32 14
  %34 = load ptr, ptr %33, align 8, !tbaa !95
  call void @g_hash_table_destroy(ptr noundef %34)
  br label %35

35:                                               ; preds = %31, %6
  %36 = load ptr, ptr %2, align 8, !tbaa !73
  %37 = getelementptr inbounds nuw %struct.dt_control_t, ptr %36, i32 0, i32 15
  %38 = load ptr, ptr %37, align 8, !tbaa !96
  %39 = icmp ne ptr %38, null
  br i1 %39, label %40, label %44

40:                                               ; preds = %35
  %41 = load ptr, ptr %2, align 8, !tbaa !73
  %42 = getelementptr inbounds nuw %struct.dt_control_t, ptr %41, i32 0, i32 15
  %43 = load ptr, ptr %42, align 8, !tbaa !96
  call void @g_sequence_free(ptr noundef %43)
  br label %44

44:                                               ; preds = %40, %35
  %45 = load ptr, ptr %2, align 8, !tbaa !73
  %46 = getelementptr inbounds nuw %struct.dt_control_t, ptr %45, i32 0, i32 21
  %47 = load ptr, ptr %46, align 8, !tbaa !101
  %48 = icmp ne ptr %47, null
  br i1 %48, label %49, label %53

49:                                               ; preds = %44
  %50 = load ptr, ptr %2, align 8, !tbaa !73
  %51 = getelementptr inbounds nuw %struct.dt_control_t, ptr %50, i32 0, i32 21
  %52 = load ptr, ptr %51, align 8, !tbaa !101
  call void @g_slist_free_full(ptr noundef %52, ptr noundef @g_free)
  br label %53

53:                                               ; preds = %5, %49, %44
  ret void
}