; Function Attrs: nounwind uwtable
define void @dt_control_cleanup(ptr noundef %0) local_unnamed_addr #0 {
  %.not = icmp eq ptr %0, null
  br i1 %.not, label %26, label %2

2:                                                ; preds = %1
  tail call void @dt_control_jobs_cleanup(ptr noundef nonnull %0) #13
  %3 = getelementptr inbounds nuw i8, ptr %0, i64 9760
  %4 = tail call i32 @pthread_mutex_destroy(ptr noundef nonnull %3) #13
  %5 = getelementptr inbounds nuw i8, ptr %0, i64 9800
  %6 = tail call i32 @pthread_mutex_destroy(ptr noundef nonnull %5) #13
  %7 = getelementptr inbounds nuw i8, ptr %0, i64 8960
  %8 = tail call i32 @pthread_mutex_destroy(ptr noundef nonnull %7) #13
  %9 = getelementptr inbounds nuw i8, ptr %0, i64 9616
  %10 = tail call i32 @pthread_mutex_destroy(ptr noundef nonnull %9) #13
  %11 = getelementptr inbounds nuw i8, ptr %0, i64 10008
  %12 = tail call i32 @pthread_mutex_destroy(ptr noundef nonnull %11) #13
  %13 = getelementptr inbounds nuw i8, ptr %0, i64 10136
  %14 = tail call i32 @pthread_mutex_destroy(ptr noundef nonnull %13) #13
  %15 = getelementptr inbounds nuw i8, ptr %0, i64 552
  %16 = load ptr, ptr %15, align 8, !tbaa !85
  %.not17 = icmp eq ptr %16, null
  br i1 %.not17, label %18, label %17

17:                                               ; preds = %2
  tail call void @g_hash_table_destroy(ptr noundef nonnull %16) #13
  br label %18

18:                                               ; preds = %17, %2
  %19 = getelementptr inbounds nuw i8, ptr %0, i64 560
  %20 = load ptr, ptr %19, align 8, !tbaa !86
  %.not18 = icmp eq ptr %20, null
  br i1 %.not18, label %22, label %21

21:                                               ; preds = %18
  tail call void @g_sequence_free(ptr noundef nonnull %20) #13
  br label %22

22:                                               ; preds = %21, %18
  %23 = getelementptr inbounds nuw i8, ptr %0, i64 600
  %24 = load ptr, ptr %23, align 8, !tbaa !91
  %.not19 = icmp eq ptr %24, null
  br i1 %.not19, label %26, label %25

25:                                               ; preds = %22
  tail call void @g_slist_free_full(ptr noundef nonnull %24, ptr noundef nonnull @g_free) #13
  br label %26

26:                                               ; preds = %1, %25, %22
  ret void
}